; Function Attrs: mustprogress uwtable
define hidden noundef i64 @_ZNK5arith3sls3dttEbRKNS0_4ineqEjl(ptr nocapture noundef nonnull readonly align 8 dereferenceable(97) %this, i1 noundef zeroext %sign, ptr nocapture noundef nonnull readonly align 8 dereferenceable(36) %ineq, i32 noundef %v, i64 noundef %new_value) local_unnamed_addr #5 align 2 {
entry:
  %0 = load ptr, ptr %ineq, align 8
  %cmp.i.i = icmp eq ptr %0, null
  br i1 %cmp.i.i, label %return, label %_ZNK6vectorISt4pairIljELb1EjE3endEv.exit

_ZNK6vectorISt4pairIljELb1EjE3endEv.exit:         ; preds = %entry
  %arrayidx.i.i = getelementptr inbounds i8, ptr %0, i64 -4
  %1 = load i32, ptr %arrayidx.i.i, align 4
  %2 = zext i32 %1 to i64
  %add.ptr.i = getelementptr inbounds %"struct.std::pair.251", ptr %0, i64 %2
  %cmp.not9 = icmp eq i32 %1, 0
  br i1 %cmp.not9, label %return, label %for.body

for.body:                                         ; preds = %_ZNK6vectorISt4pairIljELb1EjE3endEv.exit, %for.inc
  %__begin1.010 = phi ptr [ %incdec.ptr, %for.inc ], [ %0, %_ZNK6vectorISt4pairIljELb1EjE3endEv.exit ]
  %second.i.i = getelementptr inbounds i8, ptr %__begin1.010, i64 8
  %3 = load i32, ptr %second.i.i, align 4
  %cmp5 = icmp eq i32 %3, %v
  br i1 %cmp5, label %if.then, label %for.inc

if.then:                                          ; preds = %for.body
  %m_args_value = getelementptr inbounds i8, ptr %ineq, i64 24
  %4 = load i64, ptr %m_args_value, align 8
  %5 = load i64, ptr %__begin1.010, align 8
  %m_vars = getelementptr inbounds i8, ptr %this, i64 80
  %6 = load ptr, ptr %m_vars, align 8
  %idxprom.i = zext i32 %v to i64
  %arrayidx.i = getelementptr inbounds %"struct.arith::sls::var_info", ptr %6, i64 %idxprom.i
  %7 = load i64, ptr %arrayidx.i, align 8
  %sub = sub nsw i64 %new_value, %7
  %mul = mul nsw i64 %sub, %5
  %add = add nsw i64 %mul, %4
  %m_op.i = getelementptr inbounds i8, ptr %ineq, i64 8
  %8 = load i32, ptr %m_op.i, align 8
  switch i32 %8, label %sw.default.i [
    i32 1, label %sw.bb.i
    i32 0, label %sw.bb11.i
    i32 3, label %sw.bb23.i
    i32 2, label %sw.bb35.i
  ]

sw.bb.i:                                          ; preds = %if.then
  %m_bound.i = getelementptr inbounds i8, ptr %ineq, i64 16
  %9 = load i64, ptr %m_bound.i, align 8
  %cmp.not.i = icmp slt i64 %9, %add
  br i1 %sign, label %if.then.i, label %if.end4.i

if.then.i:                                        ; preds = %sw.bb.i
  br i1 %cmp.not.i, label %return, label %if.then2.i

if.then2.i:                                       ; preds = %if.then.i
  %reass.sub = sub i64 %9, %add
  %add.i = add i64 %reass.sub, 1
  br label %return

if.end4.i:                                        ; preds = %sw.bb.i
  %sub10.i = sub nsw i64 %add, %9
  %spec.select.i = select i1 %cmp.not.i, i64 %sub10.i, i64 0
  br label %return

sw.bb11.i:                                        ; preds = %if.then
  %m_bound14.i = getelementptr inbounds i8, ptr %ineq, i64 16
  %10 = load i64, ptr %m_bound14.i, align 8
  br i1 %sign, label %if.then13.i, label %if.end18.i

if.then13.i:                                      ; preds = %sw.bb11.i
  %cmp15.i = icmp eq i64 %10, %add
  %..i = zext i1 %cmp15.i to i64
  br label %return

if.end18.i:                                       ; preds = %sw.bb11.i
  %cmp20.i = icmp ne i64 %10, %add
  %.30.i = zext i1 %cmp20.i to i64
  br label %return

sw.bb23.i:                                        ; preds = %if.then
  %m_bound26.i = getelementptr inbounds i8, ptr %ineq, i64 16
  %11 = load i64, ptr %m_bound26.i, align 8
  br i1 %sign, label %if.then25.i, label %if.end30.i

if.then25.i:                                      ; preds = %sw.bb23.i
  %cmp27.i = icmp ne i64 %11, %add
  %.31.i = zext i1 %cmp27.i to i64
  br label %return

if.end30.i:                                       ; preds = %sw.bb23.i
  %cmp32.i = icmp eq i64 %11, %add
  %.32.i = zext i1 %cmp32.i to i64
  br label %return

sw.bb35.i:                                        ; preds = %if.then
  %m_bound38.i = getelementptr inbounds i8, ptr %ineq, i64 16
  %12 = load i64, ptr %m_bound38.i, align 8
  %cmp39.i = icmp sgt i64 %12, %add
  br i1 %sign, label %if.then37.i, label %if.end44.i

if.then37.i:                                      ; preds = %sw.bb35.i
  %sub42.i = sub nsw i64 %12, %add
  %spec.select33.i = select i1 %cmp39.i, i64 %sub42.i, i64 0
  br label %return

if.end44.i:                                       ; preds = %sw.bb35.i
  br i1 %cmp39.i, label %return, label %if.end48.i

if.end48.i:                                       ; preds = %if.end44.i
  %sub50.i = add i64 %add, 1
  %add51.i = sub i64 %sub50.i, %12
  br label %return

sw.default.i:                                     ; preds = %if.then
  tail call void @_Z26notify_assertion_violationPKciS0_(ptr noundef nonnull @.str.9, i32 noundef 194, ptr noundef nonnull @.str.11)
  tail call void @exit(i32 noundef 114) #18
  unreachable

for.inc:                                          ; preds = %for.body
  %incdec.ptr = getelementptr inbounds i8, ptr %__begin1.010, i64 16
  %cmp.not = icmp eq ptr %incdec.ptr, %add.ptr.i
  br i1 %cmp.not, label %return, label %for.body

return:                                           ; preds = %for.inc, %entry, %_ZNK6vectorISt4pairIljELb1EjE3endEv.exit, %if.end48.i, %if.end44.i, %if.then37.i, %if.end30.i, %if.then25.i, %if.end18.i, %if.then13.i, %if.end4.i, %if.then2.i, %if.then.i
  %retval.0 = phi i64 [ %add51.i, %if.end48.i ], [ %add.i, %if.then2.i ], [ 0, %if.then.i ], [ %..i, %if.then13.i ], [ %.30.i, %if.end18.i ], [ %.31.i, %if.then25.i ], [ %.32.i, %if.end30.i ], [ 0, %if.end44.i ], [ %spec.select.i, %if.end4.i ], [ %spec.select33.i, %if.then37.i ], [ 1, %_ZNK6vectorISt4pairIljELb1EjE3endEv.exit ], [ 1, %entry ], [ 1, %for.inc ]
  ret i64 %retval.0
}